target datalayout = "e-m:e-p270:32:32-p271:32:32-p272:64:64-i64:64-i128:128-f80:128-n8:16:32:64-S128"
target triple = "x86_64-pc-linux-gnu"

; Function Attrs: nounwind uwtable
define internal void @vertical_compose_haar_8bit(ptr noundef %0, ptr noundef %1, i32 noundef %2) #0 {
  %4 = alloca ptr, align 8
  %5 = alloca ptr, align 8
  %6 = alloca i32, align 4
  %7 = alloca i32, align 4
  %8 = alloca ptr, align 8
  %9 = alloca ptr, align 8
  store ptr %0, ptr %4, align 8, !tbaa !44
  store ptr %1, ptr %5, align 8, !tbaa !44
  store i32 %2, ptr %6, align 4, !tbaa !11
  call void @llvm.lifetime.start.p0(i64 4, ptr %7) #5
  call void @llvm.lifetime.start.p0(i64 8, ptr %8) #5
  %10 = load ptr, ptr %4, align 8, !tbaa !44
  store ptr %10, ptr %8, align 8, !tbaa !48
  call void @llvm.lifetime.start.p0(i64 8, ptr %9) #5
  %11 = load ptr, ptr %5, align 8, !tbaa !44
  store ptr %11, ptr %9, align 8, !tbaa !48
  store i32 0, ptr %7, align 4, !tbaa !11
  br label %12

12:                                               ; preds = %55, %3
  %13 = load i32, ptr %7, align 4, !tbaa !11
  %14 = load i32, ptr %6, align 4, !tbaa !11
  %15 = icmp slt i32 %13, %14
  br i1 %15, label %16, label %58

16:                                               ; preds = %12
  %17 = load ptr, ptr %8, align 8, !tbaa !48
  %18 = load i32, ptr %7, align 4, !tbaa !11
  %19 = sext i32 %18 to i64
  %20 = getelementptr inbounds i16, ptr %17, i64 %19
  %21 = load i16, ptr %20, align 2, !tbaa !50
  %22 = sext i16 %21 to i32
  %23 = load ptr, ptr %9, align 8, !tbaa !48
  %24 = load i32, ptr %7, align 4, !tbaa !11
  %25 = sext i32 %24 to i64
  %26 = getelementptr inbounds i16, ptr %23, i64 %25
  %27 = load i16, ptr %26, align 2, !tbaa !50
  %28 = sext i16 %27 to i32
  %29 = add i32 %28, 1
  %30 = ashr i32 %29, 1
  %31 = sub i32 %22, %30
  %32 = trunc i32 %31 to i16
  %33 = load ptr, ptr %8, align 8, !tbaa !48
  %34 = load i32, ptr %7, align 4, !tbaa !11
  %35 = sext i32 %34 to i64
  %36 = getelementptr inbounds i16, ptr %33, i64 %35
  store i16 %32, ptr %36, align 2, !tbaa !50
  %37 = load ptr, ptr %9, align 8, !tbaa !48
  %38 = load i32, ptr %7, align 4, !tbaa !11
  %39 = sext i32 %38 to i64
  %40 = getelementptr inbounds i16, ptr %37, i64 %39
  %41 = load i16, ptr %40, align 2, !tbaa !50
  %42 = sext i16 %41 to i32
  %43 = load ptr, ptr %8, align 8, !tbaa !48
  %44 = load i32, ptr %7, align 4, !tbaa !11
  %45 = sext i32 %44 to i64
  %46 = getelementptr inbounds i16, ptr %43, i64 %45
  %47 = load i16, ptr %46, align 2, !tbaa !50
  %48 = sext i16 %47 to i32
  %49 = add i32 %42, %48
  %50 = trunc i32 %49 to i16
  %51 = load ptr, ptr %9, align 8, !tbaa !48
  %52 = load i32, ptr %7, align 4, !tbaa !11
  %53 = sext i32 %52 to i64
  %54 = getelementptr inbounds i16, ptr %51, i64 %53
  store i16 %50, ptr %54, align 2, !tbaa !50
  br label %55

55:                                               ; preds = %16
  %56 = load i32, ptr %7, align 4, !tbaa !11
  %57 = add nsw i32 %56, 1
  store i32 %57, ptr %7, align 4, !tbaa !11
  br label %12, !llvm.loop !63

58:                                               ; preds = %12
  call void @llvm.lifetime.end.p0(i64 8, ptr %9) #5
  call void @llvm.lifetime.end.p0(i64 8, ptr %8) #5
  call void @llvm.lifetime.end.p0(i64 4, ptr %7) #5
  ret void
}