; Function Attrs: nofree norecurse nosync nounwind memory(argmem: readwrite) uwtable
define internal void @vertical_compose_haar_8bit(ptr noundef captures(none) %0, ptr noundef captures(none) %1, i32 noundef %2) #3 {
  %4 = icmp sgt i32 %2, 0
  br i1 %4, label %.lr.ph.preheader, label %._crit_edge

.lr.ph.preheader:                                 ; preds = %3
  %wide.trip.count = zext nneg i32 %2 to i64
  br label %.lr.ph

.lr.ph:                                           ; preds = %.lr.ph.preheader, %.lr.ph
  %indvars.iv = phi i64 [ 0, %.lr.ph.preheader ], [ %indvars.iv.next, %.lr.ph ]
  %5 = getelementptr inbounds nuw i16, ptr %0, i64 %indvars.iv
  %6 = load i16, ptr %5, align 2, !tbaa !39
  %7 = getelementptr inbounds nuw i16, ptr %1, i64 %indvars.iv
  %8 = load i16, ptr %7, align 2, !tbaa !39
  %9 = sext i16 %8 to i32
  %10 = add nsw i32 %9, 1
  %11 = lshr i32 %10, 1
  %12 = trunc i32 %11 to i16
  %13 = sub i16 %6, %12
  store i16 %13, ptr %5, align 2, !tbaa !39
  %14 = load i16, ptr %7, align 2, !tbaa !39
  %15 = add i16 %13, %14
  store i16 %15, ptr %7, align 2, !tbaa !39
  %indvars.iv.next = add nuw nsw i64 %indvars.iv, 1
  %exitcond.not = icmp eq i64 %indvars.iv.next, %wide.trip.count
  br i1 %exitcond.not, label %._crit_edge, label %.lr.ph, !llvm.loop !51

._crit_edge:                                      ; preds = %.lr.ph, %3
  ret void
}